target datalayout = "e-m:e-p270:32:32-p271:32:32-p272:64:64-i64:64-i128:128-f80:128-n8:16:32:64-S128"
target triple = "x86_64-pc-linux-gnu"

%struct.yyguts_t = type { ptr, ptr, ptr, i64, i64, ptr, i8, i32, i32, ptr, i32, i32, i32, i32, i32, ptr, ptr, ptr, i32, i32, ptr, i32, i32, ptr, ptr }
%struct.core_yy_extra_type = type { ptr, i64, ptr, ptr, i32, i8, i8, ptr, i32, i32, i32, i32, ptr, i32, i32, i8, i8 }

@.str.7 = private unnamed_addr constant [7 x i8] c"scan.l\00", align 1
@.str.36 = private unnamed_addr constant [19 x i8] c"%s at end of input\00", align 1
@__func__.scanner_yyerror = private unnamed_addr constant [16 x i8] c"scanner_yyerror\00", align 1
@.str.37 = private unnamed_addr constant [19 x i8] c"%s at or near \22%s\22\00", align 1

; Function Attrs: noreturn nounwind uwtable
define dso_local void @scanner_yyerror(ptr noundef %0, ptr noundef %1) #2 {
  %3 = alloca ptr, align 8
  %4 = alloca ptr, align 8
  %5 = alloca ptr, align 8
  store ptr %0, ptr %3, align 8
  store ptr %1, ptr %4, align 8
  call void @llvm.lifetime.start.p0(i64 8, ptr %5) #13
  %6 = load ptr, ptr %4, align 8
  %7 = getelementptr inbounds nuw %struct.yyguts_t, ptr %6, i32 0, i32 0
  %8 = load ptr, ptr %7, align 8
  %9 = getelementptr inbounds nuw %struct.core_yy_extra_type, ptr %8, i32 0, i32 0
  %10 = load ptr, ptr %9, align 8
  %11 = load ptr, ptr %4, align 8
  %12 = getelementptr inbounds nuw %struct.yyguts_t, ptr %11, i32 0, i32 24
  %13 = load ptr, ptr %12, align 8
  %14 = load i32, ptr %13, align 4
  %15 = sext i32 %14 to i64
  %16 = getelementptr inbounds i8, ptr %10, i64 %15
  store ptr %16, ptr %5, align 8
  %17 = load ptr, ptr %5, align 8
  %18 = load i8, ptr %17, align 1
  %19 = sext i8 %18 to i32
  %20 = icmp eq i32 %19, 0
  br i1 %20, label %21, label %40

21:                                               ; preds = %2
  br label %22

22:                                               ; preds = %21
  br i1 true, label %23, label %25

23:                                               ; preds = %22
  %24 = call zeroext i1 @errstart_cold(i32 noundef 21, ptr noundef null) #15
  br i1 %24, label %27, label %37

25:                                               ; preds = %22
  %26 = call zeroext i1 @errstart(i32 noundef 21, ptr noundef null)
  br i1 %26, label %27, label %37

27:                                               ; preds = %25, %23
  %28 = call i32 @errcode(i32 noundef 16801924)
  %29 = load ptr, ptr %3, align 8
  %30 = call i32 (ptr, ...) @errmsg(ptr noundef @.str.36, ptr noundef %29)
  %31 = load ptr, ptr %4, align 8
  %32 = getelementptr inbounds nuw %struct.yyguts_t, ptr %31, i32 0, i32 24
  %33 = load ptr, ptr %32, align 8
  %34 = load i32, ptr %33, align 4
  %35 = load ptr, ptr %4, align 8
  %36 = call i32 @scanner_errposition(i32 noundef %34, ptr noundef %35)
  call void @errfinish(ptr noundef @.str.7, i32 noundef 1232, ptr noundef @__func__.scanner_yyerror)
  br label %37

37:                                               ; preds = %27, %25, %23
  unreachable

38:                                               ; No predecessors!
  br label %39

39:                                               ; preds = %38
  br label %60

40:                                               ; preds = %2
  br label %41

41:                                               ; preds = %40
  br i1 true, label %42, label %44

42:                                               ; preds = %41
  %43 = call zeroext i1 @errstart_cold(i32 noundef 21, ptr noundef null) #15
  br i1 %43, label %46, label %57

44:                                               ; preds = %41
  %45 = call zeroext i1 @errstart(i32 noundef 21, ptr noundef null)
  br i1 %45, label %46, label %57

46:                                               ; preds = %44, %42
  %47 = call i32 @errcode(i32 noundef 16801924)
  %48 = load ptr, ptr %3, align 8
  %49 = load ptr, ptr %5, align 8
  %50 = call i32 (ptr, ...) @errmsg(ptr noundef @.str.37, ptr noundef %48, ptr noundef %49)
  %51 = load ptr, ptr %4, align 8
  %52 = getelementptr inbounds nuw %struct.yyguts_t, ptr %51, i32 0, i32 24
  %53 = load ptr, ptr %52, align 8
  %54 = load i32, ptr %53, align 4
  %55 = load ptr, ptr %4, align 8
  %56 = call i32 @scanner_errposition(i32 noundef %54, ptr noundef %55)
  call void @errfinish(ptr noundef @.str.7, i32 noundef 1240, ptr noundef @__func__.scanner_yyerror)
  br label %57

57:                                               ; preds = %46, %44, %42
  unreachable

58:                                               ; No predecessors!
  br label %59

59:                                               ; preds = %58
  br label %60

60:                                               ; preds = %59, %39
  call void @llvm.lifetime.end.p0(i64 8, ptr %5) #13
  unreachable
}