; Function Attrs: cold noreturn nounwind uwtable
define dso_local void @scanner_yyerror(ptr noundef %0, ptr noundef readonly captures(none) %1) local_unnamed_addr #2 {
  %3 = load ptr, ptr %1, align 8
  %4 = load ptr, ptr %3, align 8
  %5 = getelementptr inbounds nuw i8, ptr %1, i64 152
  %6 = load ptr, ptr %5, align 8
  %7 = load i32, ptr %6, align 4
  %8 = sext i32 %7 to i64
  %9 = getelementptr inbounds i8, ptr %4, i64 %8
  %10 = load i8, ptr %9, align 1
  %11 = icmp eq i8 %10, 0
  %12 = tail call zeroext i1 @errstart_cold(i32 noundef 21, ptr noundef null) #24
  tail call void @llvm.assume(i1 %12)
  %13 = tail call i32 @errcode(i32 noundef 16801924) #22
  br i1 %11, label %14, label %19

14:                                               ; preds = %2
  %15 = tail call i32 (ptr, ...) @errmsg(ptr noundef nonnull @.str.36, ptr noundef %0) #22
  %16 = load ptr, ptr %5, align 8
  %17 = load i32, ptr %16, align 4
  %18 = tail call i32 @scanner_errposition(i32 noundef %17, ptr noundef nonnull %1)
  tail call void @errfinish(ptr noundef nonnull @.str.7, i32 noundef 1232, ptr noundef nonnull @__func__.scanner_yyerror) #22
  unreachable

19:                                               ; preds = %2
  %20 = tail call i32 (ptr, ...) @errmsg(ptr noundef nonnull @.str.37, ptr noundef %0, ptr noundef nonnull %9) #22
  %21 = load ptr, ptr %5, align 8
  %22 = load i32, ptr %21, align 4
  %23 = tail call i32 @scanner_errposition(i32 noundef %22, ptr noundef nonnull %1)
  tail call void @errfinish(ptr noundef nonnull @.str.7, i32 noundef 1240, ptr noundef nonnull @__func__.scanner_yyerror) #22
  unreachable
}